; ModuleID = 'source-C-CXX/36/600.cpp'
source_filename = "source-C-CXX/36/600.cpp"
target datalayout = "e-m:e-p270:32:32-p271:32:32-p272:64:64-i64:64-f80:128-n8:16:32:64-S128"
target triple = "x86_64-pc-linux-gnu"

%"class.std::ios_base::Init" = type { i8 }
%"class.std::basic_istream" = type { i32 (...)**, i64, %"class.std::basic_ios" }
%"class.std::basic_ios" = type { %"class.std::ios_base", %"class.std::basic_ostream"*, i8, i8, %"class.std::basic_streambuf"*, %"class.std::ctype"*, %"class.std::num_put"*, %"class.std::num_get"* }
%"class.std::ios_base" = type { i32 (...)**, i64, i64, i32, i32, i32, %"struct.std::ios_base::_Callback_list"*, %"struct.std::ios_base::_Words", [8 x %"struct.std::ios_base::_Words"], i32, %"struct.std::ios_base::_Words"*, %"class.std::locale" }
%"struct.std::ios_base::_Callback_list" = type { %"struct.std::ios_base::_Callback_list"*, void (i32, %"class.std::ios_base"*, i32)*, i32, i32 }
%"struct.std::ios_base::_Words" = type { i8*, i64 }
%"class.std::locale" = type { %"class.std::locale::_Impl"* }
%"class.std::locale::_Impl" = type { i32, %"class.std::locale::facet"**, i64, %"class.std::locale::facet"**, i8** }
%"class.std::locale::facet" = type <{ i32 (...)**, i32, [4 x i8] }>
%"class.std::basic_ostream" = type { i32 (...)**, %"class.std::basic_ios" }
%"class.std::basic_streambuf" = type { i32 (...)**, i8*, i8*, i8*, i8*, i8*, i8*, %"class.std::locale" }
%"class.std::ctype" = type <{ %"class.std::locale::facet.base", [4 x i8], %struct.__locale_struct*, i8, [7 x i8], i32*, i32*, i16*, i8, [256 x i8], [256 x i8], i8, [6 x i8] }>
%"class.std::locale::facet.base" = type <{ i32 (...)**, i32 }>
%struct.__locale_struct = type { [13 x %struct.__locale_data*], i16*, i32*, i32*, [13 x i8*] }
%struct.__locale_data = type opaque
%"class.std::num_put" = type { %"class.std::locale::facet.base", [4 x i8] }
%"class.std::num_get" = type { %"class.std::locale::facet.base", [4 x i8] }

@_ZStL8__ioinit = internal global %"class.std::ios_base::Init" zeroinitializer, align 1
@__dso_handle = external hidden global i8
@_ZSt3cin = external global %"class.std::basic_istream", align 8
@_ZSt4cout = external global %"class.std::basic_ostream", align 8
@.str = private unnamed_addr constant [3 x i8] c"no\00", align 1
@llvm.global_ctors = appending global [1 x { i32, void ()*, i8* }] [{ i32, void ()*, i8* } { i32 65535, void ()* @_GLOBAL__sub_I_600.cpp, i8* null }]

declare void @_ZNSt8ios_base4InitC1Ev(%"class.std::ios_base::Init"* nonnull align 1 dereferenceable(1)) unnamed_addr #0

; Function Attrs: nounwind
declare void @_ZNSt8ios_base4InitD1Ev(%"class.std::ios_base::Init"* nonnull align 1 dereferenceable(1)) unnamed_addr #1

; Function Attrs: nofree nounwind
declare i32 @__cxa_atexit(void (i8*)*, i8*, i8*) local_unnamed_addr #2

; Function Attrs: mustprogress norecurse sspstrong uwtable
define dso_local i32 @main() local_unnamed_addr #3 {
  %1 = alloca i8, align 1
  %2 = alloca [1000010 x i8], align 16
  %3 = alloca i32, align 4
  %4 = getelementptr inbounds [1000010 x i8], [1000010 x i8]* %2, i64 0, i64 0
  call void @llvm.lifetime.start.p0i8(i64 1000010, i8* nonnull %4) #8
  %5 = bitcast i32* %3 to i8*
  call void @llvm.lifetime.start.p0i8(i64 4, i8* nonnull %5) #8
  %6 = call nonnull align 8 dereferenceable(16) %"class.std::basic_istream"* @_ZNSirsERi(%"class.std::basic_istream"* nonnull align 8 dereferenceable(16) @_ZSt3cin, i32* nonnull align 4 dereferenceable(4) %3)
  %7 = load i32, i32* %3, align 4, !tbaa !5
  %8 = icmp slt i32 %7, 1
  br i1 %8, label %9, label %10

9:                                                ; preds = %131, %0
  call void @llvm.lifetime.end.p0i8(i64 4, i8* nonnull %5) #8
  call void @llvm.lifetime.end.p0i8(i64 1000010, i8* nonnull %4) #8
  ret i32 0

10:                                               ; preds = %0, %131
  %11 = phi i32 [ %132, %131 ], [ undef, %0 ]
  %12 = phi i32 [ %133, %131 ], [ 1, %0 ]
  call void @_ZSt17__istream_extractRSiPcl(%"class.std::basic_istream"* nonnull align 8 dereferenceable(16) @_ZSt3cin, i8* nonnull %4, i64 1000010)
  %13 = call i64 @strlen(i8* noundef nonnull %4) #9
  %14 = trunc i64 %13 to i32
  %15 = icmp sgt i32 %14, 0
  br i1 %15, label %16, label %93

16:                                               ; preds = %10
  %17 = and i64 %13, 4294967295
  %18 = and i64 %13, 1
  %19 = icmp eq i64 %17, 1
  %20 = sub nsw i64 %17, %18
  %21 = icmp eq i64 %18, 0
  br label %22

22:                                               ; preds = %16, %25
  %23 = phi i64 [ 0, %16 ], [ %26, %25 ]
  %24 = getelementptr inbounds [1000010 x i8], [1000010 x i8]* %2, i64 0, i64 %23
  br i1 %19, label %43, label %28

25:                                               ; preds = %55
  %26 = add nuw nsw i64 %23, 1
  %27 = icmp eq i64 %26, %17
  br i1 %27, label %91, label %22, !llvm.loop !9

28:                                               ; preds = %22, %142
  %29 = phi i64 [ %144, %142 ], [ 0, %22 ]
  %30 = phi i32 [ %143, %142 ], [ 1, %22 ]
  %31 = phi i64 [ %145, %142 ], [ %20, %22 ]
  %32 = icmp eq i64 %23, %29
  br i1 %32, label %39, label %33

33:                                               ; preds = %28
  %34 = load i8, i8* %24, align 1, !tbaa !11
  %35 = getelementptr inbounds [1000010 x i8], [1000010 x i8]* %2, i64 0, i64 %29
  %36 = load i8, i8* %35, align 2, !tbaa !11
  %37 = icmp eq i8 %34, %36
  %38 = select i1 %37, i32 0, i32 %30
  br label %39

39:                                               ; preds = %33, %28
  %40 = phi i32 [ %30, %28 ], [ %38, %33 ]
  %41 = or i64 %29, 1
  %42 = icmp eq i64 %23, %41
  br i1 %42, label %142, label %136

43:                                               ; preds = %142, %22
  %44 = phi i32 [ undef, %22 ], [ %143, %142 ]
  %45 = phi i64 [ 0, %22 ], [ %144, %142 ]
  %46 = phi i32 [ 1, %22 ], [ %143, %142 ]
  br i1 %21, label %55, label %47

47:                                               ; preds = %43
  %48 = icmp eq i64 %23, %45
  br i1 %48, label %55, label %49

49:                                               ; preds = %47
  %50 = load i8, i8* %24, align 1, !tbaa !11
  %51 = getelementptr inbounds [1000010 x i8], [1000010 x i8]* %2, i64 0, i64 %45
  %52 = load i8, i8* %51, align 1, !tbaa !11
  %53 = icmp eq i8 %50, %52
  %54 = select i1 %53, i32 0, i32 %46
  br label %55

55:                                               ; preds = %49, %47, %43
  %56 = phi i32 [ %44, %43 ], [ %46, %47 ], [ %54, %49 ]
  %57 = icmp eq i32 %56, 0
  br i1 %57, label %25, label %58

58:                                               ; preds = %55
  %59 = and i64 %23, 4294967295
  %60 = getelementptr inbounds [1000010 x i8], [1000010 x i8]* %2, i64 0, i64 %59
  %61 = load i8, i8* %60, align 1, !tbaa !11
  call void @llvm.lifetime.start.p0i8(i64 1, i8* nonnull %1)
  store i8 %61, i8* %1, align 1, !tbaa !11
  %62 = call nonnull align 8 dereferenceable(8) %"class.std::basic_ostream"* @_ZSt16__ostream_insertIcSt11char_traitsIcEERSt13basic_ostreamIT_T0_ES6_PKS3_l(%"class.std::basic_ostream"* nonnull align 8 dereferenceable(8) @_ZSt4cout, i8* nonnull %1, i64 1)
  call void @llvm.lifetime.end.p0i8(i64 1, i8* nonnull %1)
  %63 = bitcast %"class.std::basic_ostream"* %62 to i8**
  %64 = load i8*, i8** %63, align 8, !tbaa !12
  %65 = getelementptr i8, i8* %64, i64 -24
  %66 = bitcast i8* %65 to i64*
  %67 = load i64, i64* %66, align 8
  %68 = bitcast %"class.std::basic_ostream"* %62 to i8*
  %69 = add nsw i64 %67, 240
  %70 = getelementptr inbounds i8, i8* %68, i64 %69
  %71 = bitcast i8* %70 to %"class.std::ctype"**
  %72 = load %"class.std::ctype"*, %"class.std::ctype"** %71, align 8, !tbaa !14
  %73 = icmp eq %"class.std::ctype"* %72, null
  br i1 %73, label %74, label %75

74:                                               ; preds = %58
  call void @_ZSt16__throw_bad_castv() #10
  unreachable

75:                                               ; preds = %58
  %76 = getelementptr inbounds %"class.std::ctype", %"class.std::ctype"* %72, i64 0, i32 8
  %77 = load i8, i8* %76, align 8, !tbaa !18
  %78 = icmp eq i8 %77, 0
  br i1 %78, label %82, label %79

79:                                               ; preds = %75
  %80 = getelementptr inbounds %"class.std::ctype", %"class.std::ctype"* %72, i64 0, i32 9, i64 10
  %81 = load i8, i8* %80, align 1, !tbaa !11
  br label %88

82:                                               ; preds = %75
  call void @_ZNKSt5ctypeIcE13_M_widen_initEv(%"class.std::ctype"* nonnull align 8 dereferenceable(570) %72)
  %83 = bitcast %"class.std::ctype"* %72 to i8 (%"class.std::ctype"*, i8)***
  %84 = load i8 (%"class.std::ctype"*, i8)**, i8 (%"class.std::ctype"*, i8)*** %83, align 8, !tbaa !12
  %85 = getelementptr inbounds i8 (%"class.std::ctype"*, i8)*, i8 (%"class.std::ctype"*, i8)** %84, i64 6
  %86 = load i8 (%"class.std::ctype"*, i8)*, i8 (%"class.std::ctype"*, i8)** %85, align 8
  %87 = call signext i8 %86(%"class.std::ctype"* nonnull align 8 dereferenceable(570) %72, i8 signext 10)
  br label %88

88:                                               ; preds = %82, %79
  %89 = phi i8 [ %81, %79 ], [ %87, %82 ]
  %90 = call nonnull align 8 dereferenceable(8) %"class.std::basic_ostream"* @_ZNSo3putEc(%"class.std::basic_ostream"* nonnull align 8 dereferenceable(8) %62, i8 signext %89)
  br label %127

91:                                               ; preds = %25
  %92 = trunc i64 %13 to i32
  br label %93

93:                                               ; preds = %91, %10
  %94 = phi i32 [ 0, %10 ], [ %92, %91 ]
  %95 = phi i32 [ %11, %10 ], [ 0, %91 ]
  %96 = icmp eq i32 %94, %14
  %97 = icmp eq i32 %95, 0
  %98 = select i1 %96, i1 %97, i1 false
  br i1 %98, label %99, label %131

99:                                               ; preds = %93
  %100 = call nonnull align 8 dereferenceable(8) %"class.std::basic_ostream"* @_ZSt16__ostream_insertIcSt11char_traitsIcEERSt13basic_ostreamIT_T0_ES6_PKS3_l(%"class.std::basic_ostream"* nonnull align 8 dereferenceable(8) @_ZSt4cout, i8* nonnull getelementptr inbounds ([3 x i8], [3 x i8]* @.str, i64 0, i64 0), i64 2)
  %101 = load i8*, i8** bitcast (%"class.std::basic_ostream"* @_ZSt4cout to i8**), align 8, !tbaa !12
  %102 = getelementptr i8, i8* %101, i64 -24
  %103 = bitcast i8* %102 to i64*
  %104 = load i64, i64* %103, align 8
  %105 = add nsw i64 %104, 240
  %106 = getelementptr inbounds i8, i8* bitcast (%"class.std::basic_ostream"* @_ZSt4cout to i8*), i64 %105
  %107 = bitcast i8* %106 to %"class.std::ctype"**
  %108 = load %"class.std::ctype"*, %"class.std::ctype"** %107, align 8, !tbaa !14
  %109 = icmp eq %"class.std::ctype"* %108, null
  br i1 %109, label %110, label %111

110:                                              ; preds = %99
  call void @_ZSt16__throw_bad_castv() #10
  unreachable

111:                                              ; preds = %99
  %112 = getelementptr inbounds %"class.std::ctype", %"class.std::ctype"* %108, i64 0, i32 8
  %113 = load i8, i8* %112, align 8, !tbaa !18
  %114 = icmp eq i8 %113, 0
  br i1 %114, label %118, label %115

115:                                              ; preds = %111
  %116 = getelementptr inbounds %"class.std::ctype", %"class.std::ctype"* %108, i64 0, i32 9, i64 10
  %117 = load i8, i8* %116, align 1, !tbaa !11
  br label %124

118:                                              ; preds = %111
  call void @_ZNKSt5ctypeIcE13_M_widen_initEv(%"class.std::ctype"* nonnull align 8 dereferenceable(570) %108)
  %119 = bitcast %"class.std::ctype"* %108 to i8 (%"class.std::ctype"*, i8)***
  %120 = load i8 (%"class.std::ctype"*, i8)**, i8 (%"class.std::ctype"*, i8)*** %119, align 8, !tbaa !12
  %121 = getelementptr inbounds i8 (%"class.std::ctype"*, i8)*, i8 (%"class.std::ctype"*, i8)** %120, i64 6
  %122 = load i8 (%"class.std::ctype"*, i8)*, i8 (%"class.std::ctype"*, i8)** %121, align 8
  %123 = call signext i8 %122(%"class.std::ctype"* nonnull align 8 dereferenceable(570) %108, i8 signext 10)
  br label %124

124:                                              ; preds = %115, %118
  %125 = phi i8 [ %117, %115 ], [ %123, %118 ]
  %126 = call nonnull align 8 dereferenceable(8) %"class.std::basic_ostream"* @_ZNSo3putEc(%"class.std::basic_ostream"* nonnull align 8 dereferenceable(8) @_ZSt4cout, i8 signext %125)
  br label %127

127:                                              ; preds = %124, %88
  %128 = phi %"class.std::basic_ostream"* [ %90, %88 ], [ %126, %124 ]
  %129 = phi i32 [ 1, %88 ], [ 0, %124 ]
  %130 = call nonnull align 8 dereferenceable(8) %"class.std::basic_ostream"* @_ZNSo5flushEv(%"class.std::basic_ostream"* nonnull align 8 dereferenceable(8) %128)
  br label %131

131:                                              ; preds = %127, %93
  %132 = phi i32 [ %95, %93 ], [ %129, %127 ]
  %133 = add nuw nsw i32 %12, 1
  %134 = load i32, i32* %3, align 4, !tbaa !5
  %135 = icmp slt i32 %12, %134
  br i1 %135, label %10, label %9, !llvm.loop !20

136:                                              ; preds = %39
  %137 = load i8, i8* %24, align 1, !tbaa !11
  %138 = getelementptr inbounds [1000010 x i8], [1000010 x i8]* %2, i64 0, i64 %41
  %139 = load i8, i8* %138, align 1, !tbaa !11
  %140 = icmp eq i8 %137, %139
  %141 = select i1 %140, i32 0, i32 %40
  br label %142

142:                                              ; preds = %136, %39
  %143 = phi i32 [ %40, %39 ], [ %141, %136 ]
  %144 = add nuw nsw i64 %29, 2
  %145 = add i64 %31, -2
  %146 = icmp eq i64 %145, 0
  br i1 %146, label %43, label %28, !llvm.loop !21
}

; Function Attrs: argmemonly mustprogress nofree nosync nounwind willreturn
declare void @llvm.lifetime.start.p0i8(i64 immarg, i8* nocapture) #4

declare nonnull align 8 dereferenceable(16) %"class.std::basic_istream"* @_ZNSirsERi(%"class.std::basic_istream"* nonnull align 8 dereferenceable(16), i32* nonnull align 4 dereferenceable(4)) local_unnamed_addr #0

; Function Attrs: argmemonly mustprogress nofree nounwind readonly willreturn
declare i64 @strlen(i8* nocapture) local_unnamed_addr #5

; Function Attrs: argmemonly mustprogress nofree nosync nounwind willreturn
declare void @llvm.lifetime.end.p0i8(i64 immarg, i8* nocapture) #4

declare void @_ZSt17__istream_extractRSiPcl(%"class.std::basic_istream"* nonnull align 8 dereferenceable(16), i8*, i64) local_unnamed_addr #0

declare nonnull align 8 dereferenceable(8) %"class.std::basic_ostream"* @_ZSt16__ostream_insertIcSt11char_traitsIcEERSt13basic_ostreamIT_T0_ES6_PKS3_l(%"class.std::basic_ostream"* nonnull align 8 dereferenceable(8), i8*, i64) local_unnamed_addr #0

declare nonnull align 8 dereferenceable(8) %"class.std::basic_ostream"* @_ZNSo3putEc(%"class.std::basic_ostream"* nonnull align 8 dereferenceable(8), i8 signext) local_unnamed_addr #0

declare nonnull align 8 dereferenceable(8) %"class.std::basic_ostream"* @_ZNSo5flushEv(%"class.std::basic_ostream"* nonnull align 8 dereferenceable(8)) local_unnamed_addr #0

; Function Attrs: noreturn
declare void @_ZSt16__throw_bad_castv() local_unnamed_addr #6

declare void @_ZNKSt5ctypeIcE13_M_widen_initEv(%"class.std::ctype"* nonnull align 8 dereferenceable(570)) local_unnamed_addr #0

; Function Attrs: sspstrong uwtable
define internal void @_GLOBAL__sub_I_600.cpp() #7 section ".text.startup" {
  tail call void @_ZNSt8ios_base4InitC1Ev(%"class.std::ios_base::Init"* nonnull align 1 dereferenceable(1) @_ZStL8__ioinit)
  %1 = tail call i32 @__cxa_atexit(void (i8*)* bitcast (void (%"class.std::ios_base::Init"*)* @_ZNSt8ios_base4InitD1Ev to void (i8*)*), i8* getelementptr inbounds (%"class.std::ios_base::Init", %"class.std::ios_base::Init"* @_ZStL8__ioinit, i64 0, i32 0), i8* nonnull @__dso_handle) #8
  ret void
}


!llvm.module.flags = !{!0, !1, !2, !3}
!llvm.ident = !{!4}

!0 = !{i32 1, !"wchar_size", i32 4}
!1 = !{i32 7, !"PIC Level", i32 2}
!2 = !{i32 7, !"PIE Level", i32 2}
!3 = !{i32 7, !"uwtable", i32 1}
!4 = !{!"clang version 13.0.0"}
!5 = !{!6, !6, i64 0}
!6 = !{!"int", !7, i64 0}
!7 = !{!"omnipotent char", !8, i64 0}
!8 = !{!"Simple C++ TBAA"}
!9 = distinct !{!9, !10}
!10 = !{!"llvm.loop.mustprogress"}
!11 = !{!7, !7, i64 0}
!12 = !{!13, !13, i64 0}
!13 = !{!"vtable pointer", !8, i64 0}
!14 = !{!15, !16, i64 240}
!15 = !{!"_ZTSSt9basic_iosIcSt11char_traitsIcEE", !16, i64 216, !7, i64 224, !17, i64 225, !16, i64 232, !16, i64 240, !16, i64 248, !16, i64 256}
!16 = !{!"any pointer", !7, i64 0}
!17 = !{!"bool", !7, i64 0}
!18 = !{!19, !7, i64 56}
!19 = !{!"_ZTSSt5ctypeIcE", !16, i64 16, !17, i64 24, !16, i64 32, !16, i64 40, !16, i64 48, !7, i64 56, !7, i64 57, !7, i64 313, !7, i64 569}
!20 = distinct !{!20, !10}
!21 = distinct !{!21, !10}
